target datalayout = "e-m:e-p270:32:32-p271:32:32-p272:64:64-i64:64-i128:128-f80:128-n8:16:32:64-S128"
target triple = "x86_64-pc-linux-gnu"

; Function Attrs: null_pointer_is_valid sspstrong uwtable
define internal i32 @dissect_lnet(ptr noundef %0, ptr noundef %1, ptr noundef %2, ptr noundef %3) #0 {
  %5 = alloca ptr, align 8
  %6 = alloca ptr, align 8
  %7 = alloca ptr, align 8
  %8 = alloca ptr, align 8
  store ptr %0, ptr %5, align 8
  store ptr %1, ptr %6, align 8
  store ptr %2, ptr %7, align 8
  store ptr %3, ptr %8, align 8
  %9 = load ptr, ptr %5, align 8
  %10 = call i32 @tvb_get_letohl(ptr noundef %9, i32 noundef 0)
  switch i32 %10, label %19 [
    i32 192, label %11
    i32 193, label %15
  ]

11:                                               ; preds = %4
  %12 = load ptr, ptr %5, align 8
  %13 = load ptr, ptr %6, align 8
  %14 = load ptr, ptr %7, align 8
  call void @tcp_dissect_pdus(ptr noundef %12, ptr noundef %13, ptr noundef %14, i1 noundef zeroext true, i32 noundef 0, ptr noundef @get_noop_message_len, ptr noundef @dissect_ksock_msg_noop, ptr noundef null)
  br label %19

15:                                               ; preds = %4
  %16 = load ptr, ptr %5, align 8
  %17 = load ptr, ptr %6, align 8
  %18 = load ptr, ptr %7, align 8
  call void @tcp_dissect_pdus(ptr noundef %16, ptr noundef %17, ptr noundef %18, i1 noundef zeroext true, i32 noundef 52, ptr noundef @get_lnet_message_len, ptr noundef @dissect_lnet_message, ptr noundef null)
  br label %19

19:                                               ; preds = %4, %15, %11
  %20 = load ptr, ptr %5, align 8
  %21 = call i32 @tvb_captured_length(ptr noundef %20)
  ret i32 %21
}