; Function Attrs: null_pointer_is_valid sspstrong uwtable
define internal i32 @dissect_lnet(ptr noundef %0, ptr noundef %1, ptr noundef %2, ptr readnone captures(none) %3) #0 {
  %5 = tail call i32 @tvb_get_letohl(ptr noundef %0, i32 noundef 0)
  switch i32 %5, label %8 [
    i32 192, label %6
    i32 193, label %7
  ]

6:                                                ; preds = %4
  tail call void @tcp_dissect_pdus(ptr noundef %0, ptr noundef %1, ptr noundef %2, i1 noundef zeroext true, i32 noundef 0, ptr noundef nonnull @get_noop_message_len, ptr noundef nonnull @dissect_ksock_msg_noop, ptr noundef null)
  br label %8

7:                                                ; preds = %4
  tail call void @tcp_dissect_pdus(ptr noundef %0, ptr noundef %1, ptr noundef %2, i1 noundef zeroext true, i32 noundef 52, ptr noundef nonnull @get_lnet_message_len, ptr noundef nonnull @dissect_lnet_message, ptr noundef null)
  br label %8

8:                                                ; preds = %7, %6, %4
  %9 = tail call i32 @tvb_captured_length(ptr noundef %0)
  ret i32 %9
}